target datalayout = "e-m:e-p270:32:32-p271:32:32-p272:64:64-i64:64-i128:128-f80:128-n8:16:32:64-S128"
target triple = "x86_64-pc-linux-gnu"

%struct.ARKodeMemRec = type { ptr, double, ptr, i32, i32, double, double, ptr, i32, double, ptr, i32, i32, ptr, ptr, i32, ptr, ptr, i32, ptr, ptr, ptr, ptr, ptr, ptr, ptr, ptr, ptr, ptr, ptr, ptr, ptr, ptr, ptr, i32, ptr, ptr, i32, ptr, i32, ptr, ptr, ptr, ptr, ptr, ptr, ptr, ptr, ptr, ptr, ptr, ptr, ptr, ptr, ptr, ptr, ptr, ptr, ptr, ptr, ptr, ptr, ptr, ptr, ptr, ptr, i32, ptr, ptr, ptr, ptr, ptr, ptr, ptr, i32, ptr, ptr, ptr, i32, ptr, ptr, ptr, ptr, ptr, ptr, ptr, i32, i32, i32, i32, double, double, double, double, double, double, double, double, double, double, i32, ptr, i64, i32, i32, i32, i32, i64, i64, i32, i64, i64, i64, i64, i64, i64, i64, double, double, double, double, double, i32, double, double, i32, i32, i32, i32, i32, i32, i32, i32, ptr, i32, ptr, ptr, ptr, ptr, i32, i32, i32 }

; Function Attrs: nounwind uwtable
define i32 @arkAllocVec(ptr noundef %0, ptr noundef %1, ptr noundef %2) #0 {
  %4 = alloca i32, align 4
  %5 = alloca ptr, align 8
  %6 = alloca ptr, align 8
  %7 = alloca ptr, align 8
  store ptr %0, ptr %5, align 8, !tbaa !11
  store ptr %1, ptr %6, align 8, !tbaa !7
  store ptr %2, ptr %7, align 8, !tbaa !89
  %8 = load ptr, ptr %7, align 8, !tbaa !89
  %9 = load ptr, ptr %8, align 8, !tbaa !7
  %10 = icmp eq ptr %9, null
  br i1 %10, label %11, label %36

11:                                               ; preds = %3
  %12 = load ptr, ptr %6, align 8, !tbaa !7
  %13 = call ptr @N_VClone(ptr noundef %12)
  %14 = load ptr, ptr %7, align 8, !tbaa !89
  store ptr %13, ptr %14, align 8, !tbaa !7
  %15 = load ptr, ptr %7, align 8, !tbaa !89
  %16 = load ptr, ptr %15, align 8, !tbaa !7
  %17 = icmp eq ptr %16, null
  br i1 %17, label %18, label %20

18:                                               ; preds = %11
  %19 = load ptr, ptr %5, align 8, !tbaa !11
  call void @arkFreeVectors(ptr noundef %19)
  store i32 0, ptr %4, align 4
  br label %37

20:                                               ; preds = %11
  %21 = load ptr, ptr %5, align 8, !tbaa !11
  %22 = getelementptr inbounds nuw %struct.ARKodeMemRec, ptr %21, i32 0, i32 113
  %23 = load i64, ptr %22, align 8, !tbaa !36
  %24 = load ptr, ptr %5, align 8, !tbaa !11
  %25 = getelementptr inbounds nuw %struct.ARKodeMemRec, ptr %24, i32 0, i32 115
  %26 = load i64, ptr %25, align 8, !tbaa !91
  %27 = add nsw i64 %26, %23
  store i64 %27, ptr %25, align 8, !tbaa !91
  %28 = load ptr, ptr %5, align 8, !tbaa !11
  %29 = getelementptr inbounds nuw %struct.ARKodeMemRec, ptr %28, i32 0, i32 114
  %30 = load i64, ptr %29, align 8, !tbaa !37
  %31 = load ptr, ptr %5, align 8, !tbaa !11
  %32 = getelementptr inbounds nuw %struct.ARKodeMemRec, ptr %31, i32 0, i32 116
  %33 = load i64, ptr %32, align 8, !tbaa !92
  %34 = add nsw i64 %33, %30
  store i64 %34, ptr %32, align 8, !tbaa !92
  br label %35

35:                                               ; preds = %20
  br label %36

36:                                               ; preds = %35, %3
  store i32 1, ptr %4, align 4
  br label %37

37:                                               ; preds = %36, %18
  %38 = load i32, ptr %4, align 4
  ret i32 %38
}