; Function Attrs: nounwind uwtable
define range(i32 0, 2) i32 @arkAllocVec(ptr noundef %0, ptr noundef %1, ptr noundef captures(none) %2) local_unnamed_addr #0 {
  %4 = load ptr, ptr %2, align 8, !tbaa !52
  %5 = icmp eq ptr %4, null
  br i1 %5, label %6, label %21

6:                                                ; preds = %3
  %7 = tail call ptr @N_VClone(ptr noundef %1) #16
  store ptr %7, ptr %2, align 8, !tbaa !52
  %8 = icmp eq ptr %7, null
  br i1 %8, label %9, label %10

9:                                                ; preds = %6
  tail call void @arkFreeVectors(ptr noundef %0)
  br label %21

10:                                               ; preds = %6
  %11 = getelementptr inbounds nuw i8, ptr %0, i64 856
  %12 = load i64, ptr %11, align 8, !tbaa !31
  %13 = getelementptr inbounds nuw i8, ptr %0, i64 872
  %14 = load i64, ptr %13, align 8, !tbaa !53
  %15 = add nsw i64 %14, %12
  store i64 %15, ptr %13, align 8, !tbaa !53
  %16 = getelementptr inbounds nuw i8, ptr %0, i64 864
  %17 = load i64, ptr %16, align 8, !tbaa !32
  %18 = getelementptr inbounds nuw i8, ptr %0, i64 880
  %19 = load i64, ptr %18, align 8, !tbaa !54
  %20 = add nsw i64 %19, %17
  store i64 %20, ptr %18, align 8, !tbaa !54
  br label %21

21:                                               ; preds = %3, %10, %9
  %.0 = phi i32 [ 0, %9 ], [ 1, %10 ], [ 1, %3 ]
  ret i32 %.0
}